target datalayout = "e-m:e-p270:32:32-p271:32:32-p272:64:64-i64:64-i128:128-f80:128-n8:16:32:64-S128"
target triple = "x86_64-unknown-linux-gnu"

%"class.openvdb::v11_0::points::StringMetaCache" = type { %"class.std::unordered_map" }
%"class.std::unordered_map" = type { %"class.std::_Hashtable" }
%"class.std::_Hashtable" = type { ptr, i64, %"struct.std::__detail::_Hash_node_base", i64, %"struct.std::__detail::_Prime_rehash_policy", ptr }
%"struct.std::__detail::_Hash_node_base" = type { ptr }
%"struct.std::__detail::_Prime_rehash_policy" = type { float, i64 }
%"class.std::__shared_count" = type { ptr }
%"class.openvdb::v11_0::points::StringAttributeHandle" = type { %"class.openvdb::v11_0::points::AttributeHandle", ptr }
%"class.openvdb::v11_0::points::AttributeHandle" = type <{ ptr, ptr, ptr, ptr, ptr, ptr, %"class.std::shared_ptr.27", i32, i32, i8, [7 x i8] }>
%"class.std::shared_ptr.27" = type { %"class.std::__shared_ptr.28" }
%"class.std::__shared_ptr.28" = type { ptr, %"class.std::__shared_count" }
%"class.openvdb::v11_0::points::StringAttributeWriteHandle" = type { %"class.openvdb::v11_0::points::StringAttributeHandle", %"class.openvdb::v11_0::points::StringMetaCache", %"class.openvdb::v11_0::points::AttributeWriteHandle" }
%"class.openvdb::v11_0::points::AttributeWriteHandle" = type { %"class.openvdb::v11_0::points::AttributeHandle.base", [7 x i8] }
%"class.openvdb::v11_0::points::AttributeHandle.base" = type <{ ptr, ptr, ptr, ptr, ptr, ptr, %"class.std::shared_ptr.27", i32, i32, i8 }>

; Function Attrs: mustprogress uwtable
define linkonce_odr void @_ZN7openvdb5v11_06points20AttributeWriteHandleIjNS1_11StringCodecILb0EEEE6expandEb(ptr noundef nonnull align 8 dereferenceable(73) %this, i1 noundef zeroext %fill) #4 comdat align 2 {
entry:
  %this.addr = alloca ptr, align 8
  %fill.addr = alloca i8, align 1
  store ptr %this, ptr %this.addr, align 8
  %frombool = zext i1 %fill to i8
  store i8 %frombool, ptr %fill.addr, align 1
  %this1 = load ptr, ptr %this.addr, align 8
  %mArray = getelementptr inbounds %"class.openvdb::v11_0::points::AttributeHandle", ptr %this1, i32 0, i32 1
  %0 = load ptr, ptr %mArray, align 8
  %1 = load i8, ptr %fill.addr, align 1
  %tobool = trunc i8 %1 to i1
  %vtable = load ptr, ptr %0, align 8
  %vfn = getelementptr inbounds ptr, ptr %vtable, i64 19
  %2 = load ptr, ptr %vfn, align 8
  call void %2(ptr noundef nonnull align 8 dereferenceable(24) %0, i1 noundef zeroext %tobool)
  ret void
}

; Function Attrs: mustprogress uwtable
define void @_ZN7openvdb5v11_06points26StringAttributeWriteHandle6expandEb(ptr noundef nonnull align 8 dereferenceable(224) %this, i1 noundef zeroext %fill) #4 align 2 {
entry:
  %this.addr = alloca ptr, align 8
  %fill.addr = alloca i8, align 1
  store ptr %this, ptr %this.addr, align 8
  %frombool = zext i1 %fill to i8
  store i8 %frombool, ptr %fill.addr, align 1
  %this1 = load ptr, ptr %this.addr, align 8
  %mWriteHandle = getelementptr inbounds %"class.openvdb::v11_0::points::StringAttributeWriteHandle", ptr %this1, i32 0, i32 2
  %0 = load i8, ptr %fill.addr, align 1
  %tobool = trunc i8 %0 to i1
  call void @_ZN7openvdb5v11_06points20AttributeWriteHandleIjNS1_11StringCodecILb0EEEE6expandEb(ptr noundef nonnull align 8 dereferenceable(73) %mWriteHandle, i1 noundef zeroext %tobool)
  ret void
}