; Function Attrs: mustprogress uwtable
define void @_ZN7openvdb5v11_06points26StringAttributeWriteHandle6expandEb(ptr nocapture noundef nonnull readonly align 8 dereferenceable(224) %this, i1 noundef zeroext %fill) local_unnamed_addr #3 align 2 {
entry:
  %mArray.i = getelementptr inbounds i8, ptr %this, i64 152
  %0 = load ptr, ptr %mArray.i, align 8
  %vtable.i = load ptr, ptr %0, align 8
  %vfn.i = getelementptr inbounds i8, ptr %vtable.i, i64 152
  %1 = load ptr, ptr %vfn.i, align 8
  tail call void %1(ptr noundef nonnull align 8 dereferenceable(24) %0, i1 noundef zeroext %fill)
  ret void
}